; Function Attrs: nounwind uwtable
define internal void @async_gen_asend_dealloc(ptr noundef %0) #2 {
  %2 = tail call i32 @PyObject_CallFinalizerFromDealloc(ptr noundef %0) #8
  %.not = icmp eq i32 %2, 0
  br i1 %.not, label %3, label %_PyFreeList_Free.exit

3:                                                ; preds = %1
  %4 = getelementptr i8, ptr %0, i64 -16
  %5 = getelementptr i8, ptr %0, i64 -8
  %.val.i = load i64, ptr %5, align 8, !tbaa !35
  %6 = and i64 %.val.i, -4
  %7 = inttoptr i64 %6 to ptr
  %.val9.i = load i64, ptr %4, align 8, !tbaa !37
  %8 = and i64 %.val9.i, -4
  %9 = inttoptr i64 %8 to ptr
  %10 = load i64, ptr %7, align 8, !tbaa !37
  %11 = and i64 %10, 3
  %12 = or disjoint i64 %11, %8
  store i64 %12, ptr %7, align 8, !tbaa !37
  %13 = getelementptr inbounds nuw i8, ptr %9, i64 8
  %14 = load i64, ptr %13, align 8, !tbaa !35
  %15 = and i64 %14, 3
  %16 = or disjoint i64 %15, %6
  store i64 %16, ptr %13, align 8, !tbaa !35
  store i64 0, ptr %4, align 8, !tbaa !37
  %17 = load i64, ptr %5, align 8, !tbaa !35
  %18 = and i64 %17, 1
  store i64 %18, ptr %5, align 8, !tbaa !35
  %19 = getelementptr inbounds nuw i8, ptr %0, i64 16
  %20 = load ptr, ptr %19, align 8, !tbaa !162
  %.not16 = icmp eq ptr %20, null
  br i1 %.not16, label %Py_DECREF.exit19, label %21

21:                                               ; preds = %3
  store ptr null, ptr %19, align 8, !tbaa !162
  %22 = load i32, ptr %20, align 8, !tbaa !4
  %.not.i18 = icmp sgt i32 %22, -1
  br i1 %.not.i18, label %23, label %Py_DECREF.exit19

23:                                               ; preds = %21
  %24 = add nsw i32 %22, -1
  store i32 %24, ptr %20, align 8, !tbaa !4
  %25 = icmp eq i32 %24, 0
  br i1 %25, label %26, label %Py_DECREF.exit19

26:                                               ; preds = %23
  tail call void @_Py_Dealloc(ptr noundef nonnull %20) #8
  br label %Py_DECREF.exit19

Py_DECREF.exit19:                                 ; preds = %26, %23, %21, %3
  %27 = getelementptr inbounds nuw i8, ptr %0, i64 24
  %28 = load ptr, ptr %27, align 8, !tbaa !32
  %.not17 = icmp eq ptr %28, null
  br i1 %.not17, label %Py_DECREF.exit, label %29

29:                                               ; preds = %Py_DECREF.exit19
  store ptr null, ptr %27, align 8, !tbaa !32
  %30 = load i32, ptr %28, align 8, !tbaa !4
  %.not.i = icmp sgt i32 %30, -1
  br i1 %.not.i, label %31, label %Py_DECREF.exit

31:                                               ; preds = %29
  %32 = add nsw i32 %30, -1
  store i32 %32, ptr %28, align 8, !tbaa !4
  %33 = icmp eq i32 %32, 0
  br i1 %33, label %34, label %Py_DECREF.exit

34:                                               ; preds = %31
  tail call void @_Py_Dealloc(ptr noundef nonnull %28) #8
  br label %Py_DECREF.exit

Py_DECREF.exit:                                   ; preds = %34, %31, %29, %Py_DECREF.exit19
  %35 = load i64, ptr %5, align 8, !tbaa !35
  %36 = and i64 %35, -2
  store i64 %36, ptr %5, align 8, !tbaa !35
  %37 = tail call align 8 ptr @llvm.threadlocal.address.p0(ptr align 8 @_Py_tss_tstate)
  %38 = load ptr, ptr %37, align 8, !tbaa !39
  %39 = getelementptr inbounds nuw i8, ptr %38, i64 16
  %40 = load ptr, ptr %39, align 8, !tbaa !41
  %41 = getelementptr inbounds nuw i8, ptr %40, i64 11520
  %42 = load i64, ptr %41, align 8, !tbaa !164
  %or.cond.i.i = icmp ult i64 %42, 80
  br i1 %or.cond.i.i, label %_PyFreeList_Push.exit.i, label %46

_PyFreeList_Push.exit.i:                          ; preds = %Py_DECREF.exit
  %43 = getelementptr inbounds nuw i8, ptr %40, i64 11512
  %44 = load ptr, ptr %43, align 8, !tbaa !165
  store ptr %44, ptr %0, align 8, !tbaa !143
  store ptr %0, ptr %43, align 8, !tbaa !165
  %45 = add nuw nsw i64 %42, 1
  store i64 %45, ptr %41, align 8, !tbaa !164
  br label %_PyFreeList_Free.exit

46:                                               ; preds = %Py_DECREF.exit
  tail call void @PyObject_GC_Del(ptr noundef nonnull %0) #8
  br label %_PyFreeList_Free.exit

_PyFreeList_Free.exit:                            ; preds = %46, %_PyFreeList_Push.exit.i, %1
  ret void
}